; Function Attrs: mustprogress uwtable
define hidden void @_ZN3smt5setup12setup_arraysEv(ptr nocapture noundef nonnull readonly align 8 dereferenceable(33) %this) local_unnamed_addr #4 align 2 personality ptr @__gxx_personality_v0 {
entry:
  %ref.tmp.i = alloca %class.symbol, align 8
  %ref.tmp = alloca %"class.std::__cxx11::basic_string", align 8
  %ref.tmp9 = alloca %"class.std::allocator.310", align 1
  %m_params = getelementptr inbounds i8, ptr %this, i64 16
  %0 = load ptr, ptr %m_params, align 8
  %m_array_mode = getelementptr inbounds i8, ptr %0, i64 396
  %1 = load i32, ptr %m_array_mode, align 4
  switch i32 %1, label %sw.epilog [
    i32 0, label %sw.bb
    i32 1, label %sw.bb4
    i32 2, label %sw.bb8
    i32 3, label %sw.bb13
  ]

sw.bb:                                            ; preds = %entry
  %2 = load ptr, ptr %this, align 8
  %call = tail call noalias noundef ptr @_ZN6memory8allocateEm(i64 noundef 64)
  %3 = load ptr, ptr %this, align 8
  %m_manager = getelementptr inbounds i8, ptr %this, i64 8
  %4 = load ptr, ptr %m_manager, align 8
  call void @llvm.lifetime.start.p0(i64 8, ptr nonnull %ref.tmp.i)
  call void @_ZN6symbolC1EPKc(ptr noundef nonnull align 8 dereferenceable(8) %ref.tmp.i, ptr noundef nonnull @.str.59)
  %m_family_manager.i.i = getelementptr inbounds i8, ptr %4, i64 560
  %call.i.i = call noundef i32 @_ZN14family_manager12mk_family_idERK6symbol(ptr noundef nonnull align 8 dereferenceable(56) %m_family_manager.i.i, ptr noundef nonnull align 8 dereferenceable(8) %ref.tmp.i)
  call void @llvm.lifetime.end.p0(i64 8, ptr nonnull %ref.tmp.i)
  call void @_ZN3smt12theory_dummyC1ERNS_7contextEiPKc(ptr noundef nonnull align 8 dereferenceable(64) %call, ptr noundef nonnull align 8 dereferenceable(11616) %3, i32 noundef %call.i.i, ptr noundef nonnull @.str.60)
  call void @_ZN3smt7context15register_pluginEPNS_6theoryE(ptr noundef nonnull align 8 dereferenceable(11616) %2, ptr noundef nonnull %call)
  br label %sw.epilog

sw.bb4:                                           ; preds = %entry
  %5 = load ptr, ptr %this, align 8
  %call6 = tail call noalias noundef ptr @_ZN6memory8allocateEm(i64 noundef 448)
  %6 = load ptr, ptr %this, align 8
  tail call void @_ZN3smt12theory_arrayC1ERNS_7contextE(ptr noundef nonnull align 8 dereferenceable(444) %call6, ptr noundef nonnull align 8 dereferenceable(11616) %6)
  tail call void @_ZN3smt7context15register_pluginEPNS_6theoryE(ptr noundef nonnull align 8 dereferenceable(11616) %5, ptr noundef nonnull %call6)
  br label %sw.epilog

sw.bb8:                                           ; preds = %entry
  %exception = tail call ptr @__cxa_allocate_exception(i64 40) #15
  call void @_ZNSaIcEC1Ev(ptr noundef nonnull align 1 dereferenceable(1) %ref.tmp9) #15
  invoke void @_ZNSt7__cxx1112basic_stringIcSt11char_traitsIcESaIcEEC2IS3_EEPKcRKS3_(ptr noundef nonnull align 8 dereferenceable(32) %ref.tmp, ptr noundef nonnull @.str.61, ptr noundef nonnull align 1 dereferenceable(1) %ref.tmp9)
          to label %invoke.cont unwind label %cleanup.action

invoke.cont:                                      ; preds = %sw.bb8
  store ptr getelementptr inbounds ({ [6 x ptr] }, ptr @_ZTV17default_exception, i64 0, i32 0, i64 2), ptr %exception, align 8
  %m_msg.i = getelementptr inbounds i8, ptr %exception, i64 8
  call void @_ZNSt7__cxx1112basic_stringIcSt11char_traitsIcESaIcEEC1EOS4_(ptr noundef nonnull align 8 dereferenceable(32) %m_msg.i, ptr noundef nonnull align 8 dereferenceable(32) %ref.tmp) #15
  invoke void @__cxa_throw(ptr nonnull %exception, ptr nonnull @_ZTI17default_exception, ptr nonnull @_ZN17default_exceptionD2Ev) #17
          to label %unreachable unwind label %ehcleanup

ehcleanup:                                        ; preds = %invoke.cont
  %7 = landingpad { ptr, i32 }
          cleanup
  call void @_ZNSt7__cxx1112basic_stringIcSt11char_traitsIcESaIcEED1Ev(ptr noundef nonnull align 8 dereferenceable(32) %ref.tmp) #15
  call void @_ZNSaIcED1Ev(ptr noundef nonnull align 1 dereferenceable(1) %ref.tmp9) #15
  br label %eh.resume

cleanup.action:                                   ; preds = %sw.bb8
  %8 = landingpad { ptr, i32 }
          cleanup
  call void @_ZNSaIcED1Ev(ptr noundef nonnull align 1 dereferenceable(1) %ref.tmp9) #15
  call void @__cxa_free_exception(ptr %exception) #15
  br label %eh.resume

sw.bb13:                                          ; preds = %entry
  %9 = load ptr, ptr %this, align 8
  %call15 = tail call noalias noundef ptr @_ZN6memory8allocateEm(i64 noundef 608)
  %10 = load ptr, ptr %this, align 8
  tail call void @_ZN3smt17theory_array_fullC1ERNS_7contextE(ptr noundef nonnull align 8 dereferenceable(608) %call15, ptr noundef nonnull align 8 dereferenceable(11616) %10)
  tail call void @_ZN3smt7context15register_pluginEPNS_6theoryE(ptr noundef nonnull align 8 dereferenceable(11616) %9, ptr noundef nonnull %call15)
  br label %sw.epilog

sw.epilog:                                        ; preds = %sw.bb13, %sw.bb4, %sw.bb, %entry
  ret void

eh.resume:                                        ; preds = %ehcleanup, %cleanup.action
  %.pn4 = phi { ptr, i32 } [ %7, %ehcleanup ], [ %8, %cleanup.action ]
  resume { ptr, i32 } %.pn4

unreachable:                                      ; preds = %invoke.cont
  unreachable
}